#include <math.h>
#include <stdio.h>
#include <stdlib.h>
#include <string.h>

void main()
{
	char a[1000],*p,*q;int n;
	gets(a);n=strlen(a);
	for(p=a+n-1;p>=a;p--)
	{
if(*p==' '&&p!=a)
{
	for(q=p+1;*q!=' '&&q!=a+n;q++)
printf("%c",*q);
	printf(" ");
}
if(p==a)
for(q=a;*q!=' '&&*q!='\0';q++)
printf("%c",*q);
	}
}
