; ModuleID = 'source-C-CXX/22/1194.c'
source_filename = "source-C-CXX/22/1194.c"
target datalayout = "e-m:e-p270:32:32-p271:32:32-p272:64:64-i64:64-f80:128-n8:16:32:64-S128"
target triple = "x86_64-pc-linux-gnu"

; Function Attrs: nounwind sspstrong uwtable
define dso_local void @main() local_unnamed_addr #0 {
  %1 = alloca [1000 x i8], align 16
  %2 = getelementptr inbounds [1000 x i8], [1000 x i8]* %1, i64 0, i64 0
  call void @llvm.lifetime.start.p0i8(i64 1000, i8* nonnull %2) #5
  %3 = call i32 (i8*, ...) bitcast (i32 (...)* @gets to i32 (i8*, ...)*)(i8* nonnull %2) #5
  %4 = call i64 @strlen(i8* noundef nonnull %2) #6
  %5 = shl i64 %4, 32
  %6 = ashr exact i64 %5, 32
  %7 = getelementptr inbounds [1000 x i8], [1000 x i8]* %1, i64 0, i64 %6
  %8 = getelementptr inbounds i8, i8* %7, i64 -1
  %9 = icmp ult i8* %8, %2
  br i1 %9, label %45, label %10

10:                                               ; preds = %0, %42
  %11 = phi i8* [ %43, %42 ], [ %8, %0 ]
  %12 = phi i8* [ %11, %42 ], [ %7, %0 ]
  %13 = load i8, i8* %11, align 1, !tbaa !5
  %14 = icmp ne i8 %13, 32
  %15 = icmp eq i8* %11, %2
  %16 = or i1 %14, %15
  br i1 %16, label %34, label %17

17:                                               ; preds = %10
  %18 = load i8, i8* %12, align 1, !tbaa !5
  %19 = icmp ne i8 %18, 32
  %20 = icmp ne i8* %12, %7
  %21 = select i1 %19, i1 %20, i1 false
  br i1 %21, label %22, label %32

22:                                               ; preds = %17, %22
  %23 = phi i8 [ %28, %22 ], [ %18, %17 ]
  %24 = phi i8* [ %27, %22 ], [ %12, %17 ]
  %25 = sext i8 %23 to i32
  %26 = call i32 @putchar(i32 %25)
  %27 = getelementptr inbounds i8, i8* %24, i64 1
  %28 = load i8, i8* %27, align 1, !tbaa !5
  %29 = icmp ne i8 %28, 32
  %30 = icmp ne i8* %27, %7
  %31 = select i1 %29, i1 %30, i1 false
  br i1 %31, label %22, label %32, !llvm.loop !8

32:                                               ; preds = %22, %17
  %33 = call i32 @putchar(i32 32)
  br label %34

34:                                               ; preds = %32, %10
  br i1 %15, label %35, label %42

35:                                               ; preds = %34, %38
  %36 = phi i8* [ %41, %38 ], [ %2, %34 ]
  %37 = load i8, i8* %36, align 1, !tbaa !5
  switch i8 %37, label %38 [
    i8 32, label %42
    i8 0, label %42
  ]

38:                                               ; preds = %35
  %39 = sext i8 %37 to i32
  %40 = call i32 @putchar(i32 %39)
  %41 = getelementptr inbounds i8, i8* %36, i64 1
  br label %35, !llvm.loop !10

42:                                               ; preds = %35, %35, %34
  %43 = getelementptr inbounds i8, i8* %11, i64 -1
  %44 = icmp ult i8* %43, %2
  br i1 %44, label %45, label %10, !llvm.loop !11

45:                                               ; preds = %42, %0
  call void @llvm.lifetime.end.p0i8(i64 1000, i8* nonnull %2) #5
  ret void
}

; Function Attrs: argmemonly mustprogress nofree nosync nounwind willreturn
declare void @llvm.lifetime.start.p0i8(i64 immarg, i8* nocapture) #1

declare i32 @gets(...) local_unnamed_addr #2

; Function Attrs: argmemonly mustprogress nofree nounwind readonly willreturn
declare i64 @strlen(i8* nocapture) local_unnamed_addr #3

; Function Attrs: argmemonly mustprogress nofree nosync nounwind willreturn
declare void @llvm.lifetime.end.p0i8(i64 immarg, i8* nocapture) #1

; Function Attrs: nofree nounwind
declare noundef i32 @putchar(i32 noundef) local_unnamed_addr #4


!llvm.module.flags = !{!0, !1, !2, !3}
!llvm.ident = !{!4}

!0 = !{i32 1, !"wchar_size", i32 4}
!1 = !{i32 7, !"PIC Level", i32 2}
!2 = !{i32 7, !"PIE Level", i32 2}
!3 = !{i32 7, !"uwtable", i32 1}
!4 = !{!"clang version 13.0.0"}
!5 = !{!6, !6, i64 0}
!6 = !{!"omnipotent char", !7, i64 0}
!7 = !{!"Simple C/C++ TBAA"}
!8 = distinct !{!8, !9}
!9 = !{!"llvm.loop.mustprogress"}
!10 = distinct !{!10, !9}
!11 = distinct !{!11, !9}
